target datalayout = "e-m:e-p270:32:32-p271:32:32-p272:64:64-i64:64-i128:128-f80:128-n8:16:32:64-S128"
target triple = "x86_64-pc-linux-gnu"

%struct.Abc_Frame_t_ = type { ptr, ptr, ptr, ptr, ptr, ptr, ptr, ptr, ptr, ptr, i32, i32, i32, i32, i32, ptr, float, float, i32, i32, ptr, ptr, ptr, double, double, ptr, ptr, ptr, ptr, ptr, ptr, ptr, ptr, ptr, ptr, ptr, ptr, float, ptr, i32, ptr, ptr, ptr, ptr, ptr, i32, i32, i32, i32, i32, i32, ptr, ptr, ptr, ptr, ptr, ptr, i32, i32, ptr, ptr, ptr, ptr, ptr, ptr, ptr, ptr, ptr, ptr, ptr, ptr, ptr, ptr, ptr, ptr, ptr, ptr, ptr, ptr, ptr, ptr, ptr, ptr, ptr, ptr, ptr, ptr, ptr, ptr }

@stdout = external global ptr, align 8
@globalUtilOptind = external global i32, align 4
@.str.233 = private unnamed_addr constant [34 x i8] c"\09-h     : print the help massage\0A\00", align 1
@.str.234 = private unnamed_addr constant [41 x i8] c"\09file   : the name of the file to write\0A\00", align 1
@.str.368 = private unnamed_addr constant [4 x i8] c"NQh\00", align 1
@.str.369 = private unnamed_addr constant [60 x i8] c"Command line switch \22-N\22 should be followed by an integer.\0A\00", align 1
@.str.370 = private unnamed_addr constant [60 x i8] c"Command line switch \22-Q\22 should be followed by an integer.\0A\00", align 1
@.str.371 = private unnamed_addr constant [54 x i8] c"usage: write_sorter_cnf [-N <num>] [-Q <num>] <file>\0A\00", align 1
@.str.372 = private unnamed_addr constant [37 x i8] c"\09         writes CNF for the sorter\0A\00", align 1
@.str.373 = private unnamed_addr constant [52 x i8] c"\09-N num : the number of sorter bits [default = %d]\0A\00", align 1
@.str.374 = private unnamed_addr constant [65 x i8] c"\09-Q num : the number of bits to be asserted to 1 [default = %d]\0A\00", align 1

; Function Attrs: inlinehint nounwind willreturn memory(read) uwtable
define available_externally i32 @atoi(ptr noundef nonnull %0) #6 {
  %2 = alloca ptr, align 8
  store ptr %0, ptr %2, align 8, !tbaa !14
  %3 = load ptr, ptr %2, align 8, !tbaa !14
  %4 = call i64 @strtol(ptr noundef %3, ptr noundef null, i32 noundef 10) #11
  %5 = trunc i64 %4 to i32
  ret i32 %5
}

; Function Attrs: nounwind uwtable
define internal i32 @IoCommandWriteSortCnf(ptr noundef %0, i32 noundef %1, ptr noundef %2) #0 {
  %4 = alloca i32, align 4
  %5 = alloca ptr, align 8
  %6 = alloca i32, align 4
  %7 = alloca ptr, align 8
  %8 = alloca ptr, align 8
  %9 = alloca i32, align 4
  %10 = alloca i32, align 4
  %11 = alloca i32, align 4
  %12 = alloca i32, align 4
  store ptr %0, ptr %5, align 8, !tbaa !3
  store i32 %1, ptr %6, align 4, !tbaa !8
  store ptr %2, ptr %7, align 8, !tbaa !10
  call void @llvm.lifetime.start.p0(i64 8, ptr %8) #11
  call void @llvm.lifetime.start.p0(i64 4, ptr %9) #11
  call void @llvm.lifetime.start.p0(i64 4, ptr %10) #11
  store i32 16, ptr %10, align 4, !tbaa !8
  call void @llvm.lifetime.start.p0(i64 4, ptr %11) #11
  store i32 4, ptr %11, align 4, !tbaa !8
  call void (...) @Extra_UtilGetoptReset()
  br label %13

13:                                               ; preds = %62, %3
  %14 = load i32, ptr %6, align 4, !tbaa !8
  %15 = load ptr, ptr %7, align 8, !tbaa !10
  %16 = call i32 @Extra_UtilGetopt(i32 noundef %14, ptr noundef %15, ptr noundef @.str.368)
  store i32 %16, ptr %9, align 4, !tbaa !8
  %17 = icmp ne i32 %16, -1
  br i1 %17, label %18, label %63

18:                                               ; preds = %13
  %19 = load i32, ptr %9, align 4, !tbaa !8
  switch i32 %19, label %61 [
    i32 78, label %20
    i32 81, label %40
    i32 104, label %60
  ]

20:                                               ; preds = %18
  %21 = load i32, ptr @globalUtilOptind, align 4, !tbaa !8
  %22 = load i32, ptr %6, align 4, !tbaa !8
  %23 = icmp sge i32 %21, %22
  br i1 %23, label %24, label %27

24:                                               ; preds = %20
  %25 = load ptr, ptr @stdout, align 8, !tbaa !22
  %26 = call i32 (ptr, ptr, ...) @fprintf(ptr noundef %25, ptr noundef @.str.369) #11
  br label %78

27:                                               ; preds = %20
  %28 = load ptr, ptr %7, align 8, !tbaa !10
  %29 = load i32, ptr @globalUtilOptind, align 4, !tbaa !8
  %30 = sext i32 %29 to i64
  %31 = getelementptr inbounds ptr, ptr %28, i64 %30
  %32 = load ptr, ptr %31, align 8, !tbaa !14
  %33 = call i32 @atoi(ptr noundef %32) #12
  store i32 %33, ptr %10, align 4, !tbaa !8
  %34 = load i32, ptr @globalUtilOptind, align 4, !tbaa !8
  %35 = add nsw i32 %34, 1
  store i32 %35, ptr @globalUtilOptind, align 4, !tbaa !8
  %36 = load i32, ptr %10, align 4, !tbaa !8
  %37 = icmp sle i32 %36, 0
  br i1 %37, label %38, label %39

38:                                               ; preds = %27
  br label %78

39:                                               ; preds = %27
  br label %62

40:                                               ; preds = %18
  %41 = load i32, ptr @globalUtilOptind, align 4, !tbaa !8
  %42 = load i32, ptr %6, align 4, !tbaa !8
  %43 = icmp sge i32 %41, %42
  br i1 %43, label %44, label %47

44:                                               ; preds = %40
  %45 = load ptr, ptr @stdout, align 8, !tbaa !22
  %46 = call i32 (ptr, ptr, ...) @fprintf(ptr noundef %45, ptr noundef @.str.370) #11
  br label %78

47:                                               ; preds = %40
  %48 = load ptr, ptr %7, align 8, !tbaa !10
  %49 = load i32, ptr @globalUtilOptind, align 4, !tbaa !8
  %50 = sext i32 %49 to i64
  %51 = getelementptr inbounds ptr, ptr %48, i64 %50
  %52 = load ptr, ptr %51, align 8, !tbaa !14
  %53 = call i32 @atoi(ptr noundef %52) #12
  store i32 %53, ptr %11, align 4, !tbaa !8
  %54 = load i32, ptr @globalUtilOptind, align 4, !tbaa !8
  %55 = add nsw i32 %54, 1
  store i32 %55, ptr @globalUtilOptind, align 4, !tbaa !8
  %56 = load i32, ptr %11, align 4, !tbaa !8
  %57 = icmp sle i32 %56, 0
  br i1 %57, label %58, label %59

58:                                               ; preds = %47
  br label %78

59:                                               ; preds = %47
  br label %62

60:                                               ; preds = %18
  br label %78

61:                                               ; preds = %18
  br label %78

62:                                               ; preds = %59, %39
  br label %13, !llvm.loop !92

63:                                               ; preds = %13
  %64 = load i32, ptr %6, align 4, !tbaa !8
  %65 = load i32, ptr @globalUtilOptind, align 4, !tbaa !8
  %66 = add nsw i32 %65, 1
  %67 = icmp ne i32 %64, %66
  br i1 %67, label %68, label %69

68:                                               ; preds = %63
  br label %78

69:                                               ; preds = %63
  %70 = load ptr, ptr %7, align 8, !tbaa !10
  %71 = load i32, ptr @globalUtilOptind, align 4, !tbaa !8
  %72 = sext i32 %71 to i64
  %73 = getelementptr inbounds ptr, ptr %70, i64 %72
  %74 = load ptr, ptr %73, align 8, !tbaa !14
  store ptr %74, ptr %8, align 8, !tbaa !14
  %75 = load ptr, ptr %8, align 8, !tbaa !14
  %76 = load i32, ptr %10, align 4, !tbaa !8
  %77 = load i32, ptr %11, align 4, !tbaa !8
  call void @Abc_NtkWriteSorterCnf(ptr noundef %75, i32 noundef %76, i32 noundef %77)
  store i32 0, ptr %4, align 4
  store i32 1, ptr %12, align 4
  br label %105

78:                                               ; preds = %68, %61, %60, %58, %44, %38, %24
  %79 = load ptr, ptr %5, align 8, !tbaa !3
  %80 = getelementptr inbounds nuw %struct.Abc_Frame_t_, ptr %79, i32 0, i32 21
  %81 = load ptr, ptr %80, align 8, !tbaa !24
  %82 = call i32 (ptr, ptr, ...) @fprintf(ptr noundef %81, ptr noundef @.str.371) #11
  %83 = load ptr, ptr %5, align 8, !tbaa !3
  %84 = getelementptr inbounds nuw %struct.Abc_Frame_t_, ptr %83, i32 0, i32 21
  %85 = load ptr, ptr %84, align 8, !tbaa !24
  %86 = call i32 (ptr, ptr, ...) @fprintf(ptr noundef %85, ptr noundef @.str.372) #11
  %87 = load ptr, ptr %5, align 8, !tbaa !3
  %88 = getelementptr inbounds nuw %struct.Abc_Frame_t_, ptr %87, i32 0, i32 21
  %89 = load ptr, ptr %88, align 8, !tbaa !24
  %90 = load i32, ptr %10, align 4, !tbaa !8
  %91 = call i32 (ptr, ptr, ...) @fprintf(ptr noundef %89, ptr noundef @.str.373, i32 noundef %90) #11
  %92 = load ptr, ptr %5, align 8, !tbaa !3
  %93 = getelementptr inbounds nuw %struct.Abc_Frame_t_, ptr %92, i32 0, i32 21
  %94 = load ptr, ptr %93, align 8, !tbaa !24
  %95 = load i32, ptr %11, align 4, !tbaa !8
  %96 = call i32 (ptr, ptr, ...) @fprintf(ptr noundef %94, ptr noundef @.str.374, i32 noundef %95) #11
  %97 = load ptr, ptr %5, align 8, !tbaa !3
  %98 = getelementptr inbounds nuw %struct.Abc_Frame_t_, ptr %97, i32 0, i32 21
  %99 = load ptr, ptr %98, align 8, !tbaa !24
  %100 = call i32 (ptr, ptr, ...) @fprintf(ptr noundef %99, ptr noundef @.str.233) #11
  %101 = load ptr, ptr %5, align 8, !tbaa !3
  %102 = getelementptr inbounds nuw %struct.Abc_Frame_t_, ptr %101, i32 0, i32 21
  %103 = load ptr, ptr %102, align 8, !tbaa !24
  %104 = call i32 (ptr, ptr, ...) @fprintf(ptr noundef %103, ptr noundef @.str.234) #11
  store i32 1, ptr %4, align 4
  store i32 1, ptr %12, align 4
  br label %105

105:                                              ; preds = %78, %69
  call void @llvm.lifetime.end.p0(i64 4, ptr %11) #11
  call void @llvm.lifetime.end.p0(i64 4, ptr %10) #11
  call void @llvm.lifetime.end.p0(i64 4, ptr %9) #11
  call void @llvm.lifetime.end.p0(i64 8, ptr %8) #11
  %106 = load i32, ptr %4, align 4
  ret i32 %106
}