; Function Attrs: nounwind uwtable
define internal range(i32 0, 2) i32 @IoCommandWriteSortCnf(ptr noundef readonly captures(none) %0, i32 noundef %1, ptr noundef %2) #0 {
  tail call void (...) @Extra_UtilGetoptReset() #18
  br label %.outer

.outer:                                           ; preds = %8, %3
  %.022.ph = phi i32 [ %13, %8 ], [ 16, %3 ]
  %.0.ph = phi i32 [ %.0, %8 ], [ 4, %3 ]
  br label %4

4:                                                ; preds = %.outer, %18
  %.0 = phi i32 [ %23, %18 ], [ %.0.ph, %.outer ]
  %5 = tail call i32 @Extra_UtilGetopt(i32 noundef %1, ptr noundef %2, ptr noundef nonnull @.str.368) #18
  switch i32 %5, label %.loopexit [
    i32 -1, label %26
    i32 78, label %6
    i32 81, label %16
  ]

6:                                                ; preds = %4
  %7 = load i32, ptr @globalUtilOptind, align 4, !tbaa !3
  %.not35 = icmp slt i32 %7, %1
  br i1 %.not35, label %8, label %.loopexit.sink.split

8:                                                ; preds = %6
  %9 = sext i32 %7 to i64
  %10 = getelementptr inbounds ptr, ptr %2, i64 %9
  %11 = load ptr, ptr %10, align 8, !tbaa !9
  %12 = tail call i64 @strtol(ptr noundef nonnull captures(none) %11, ptr noundef null, i32 noundef 10) #18
  %13 = trunc i64 %12 to i32
  %14 = add nsw i32 %7, 1
  store i32 %14, ptr @globalUtilOptind, align 4, !tbaa !3
  %15 = icmp slt i32 %13, 1
  br i1 %15, label %.loopexit, label %.outer, !llvm.loop !102

16:                                               ; preds = %4
  %17 = load i32, ptr @globalUtilOptind, align 4, !tbaa !3
  %.not34 = icmp slt i32 %17, %1
  br i1 %.not34, label %18, label %.loopexit.sink.split

18:                                               ; preds = %16
  %19 = sext i32 %17 to i64
  %20 = getelementptr inbounds ptr, ptr %2, i64 %19
  %21 = load ptr, ptr %20, align 8, !tbaa !9
  %22 = tail call i64 @strtol(ptr noundef nonnull captures(none) %21, ptr noundef null, i32 noundef 10) #18
  %23 = trunc i64 %22 to i32
  %24 = add nsw i32 %17, 1
  store i32 %24, ptr @globalUtilOptind, align 4, !tbaa !3
  %25 = icmp slt i32 %23, 1
  br i1 %25, label %.loopexit, label %4, !llvm.loop !102

26:                                               ; preds = %4
  %27 = load i32, ptr @globalUtilOptind, align 4, !tbaa !3
  %28 = add nsw i32 %27, 1
  %.not33 = icmp eq i32 %1, %28
  br i1 %.not33, label %29, label %.loopexit

29:                                               ; preds = %26
  %30 = sext i32 %27 to i64
  %31 = getelementptr inbounds ptr, ptr %2, i64 %30
  %32 = load ptr, ptr %31, align 8, !tbaa !9
  tail call void @Abc_NtkWriteSorterCnf(ptr noundef %32, i32 noundef %.022.ph, i32 noundef %.0) #18
  br label %48

.loopexit.sink.split:                             ; preds = %6, %16
  %.str.370.sink = phi ptr [ @.str.370, %16 ], [ @.str.369, %6 ]
  %33 = load ptr, ptr @stdout, align 8, !tbaa !14
  %34 = tail call i64 @fwrite(ptr nonnull %.str.370.sink, i64 59, i64 1, ptr %33)
  br label %.loopexit

.loopexit:                                        ; preds = %4, %18, %8, %.loopexit.sink.split, %26
  %.123 = phi i32 [ %.022.ph, %26 ], [ %.022.ph, %.loopexit.sink.split ], [ %.022.ph, %4 ], [ %.022.ph, %18 ], [ %13, %8 ]
  %.1 = phi i32 [ %.0, %26 ], [ %.0, %.loopexit.sink.split ], [ %23, %18 ], [ %.0, %4 ], [ %.0, %8 ]
  %35 = getelementptr inbounds nuw i8, ptr %0, i64 136
  %36 = load ptr, ptr %35, align 8, !tbaa !34
  %37 = tail call i64 @fwrite(ptr nonnull @.str.371, i64 53, i64 1, ptr %36)
  %38 = load ptr, ptr %35, align 8, !tbaa !34
  %39 = tail call i64 @fwrite(ptr nonnull @.str.372, i64 36, i64 1, ptr %38)
  %40 = load ptr, ptr %35, align 8, !tbaa !34
  %41 = tail call i32 (ptr, ptr, ...) @fprintf(ptr noundef %40, ptr noundef nonnull @.str.373, i32 noundef %.123) #18
  %42 = load ptr, ptr %35, align 8, !tbaa !34
  %43 = tail call i32 (ptr, ptr, ...) @fprintf(ptr noundef %42, ptr noundef nonnull @.str.374, i32 noundef %.1) #18
  %44 = load ptr, ptr %35, align 8, !tbaa !34
  %45 = tail call i64 @fwrite(ptr nonnull @.str.233, i64 33, i64 1, ptr %44)
  %46 = load ptr, ptr %35, align 8, !tbaa !34
  %47 = tail call i64 @fwrite(ptr nonnull @.str.234, i64 40, i64 1, ptr %46)
  br label %48

48:                                               ; preds = %.loopexit, %29
  %.025 = phi i32 [ 1, %.loopexit ], [ 0, %29 ]
  ret i32 %.025
}